target datalayout = "e-m:e-p270:32:32-p271:32:32-p272:64:64-i64:64-i128:128-f80:128-n8:16:32:64-S128"
target triple = "x86_64-pc-linux-gnu"

%"class.cv::Mat" = type { i32, i32, i32, i32, ptr, ptr, ptr, ptr, ptr, ptr, %"struct.cv::MatSize", %"struct.cv::MatStep" }
%"struct.cv::MatSize" = type { ptr }
%"struct.cv::MatStep" = type { ptr, [2 x i64] }
%"class.cv::Matx.4" = type { [3 x i8] }

; Function Attrs: inlinehint mustprogress nounwind uwtable
define linkonce_odr hidden noundef nonnull align 1 dereferenceable(1) ptr @_ZN2cv3VecIhLi3EEixEi(ptr noundef nonnull align 1 dereferenceable(3) %0, i32 noundef %1) #14 comdat align 2 {
  %3 = alloca ptr, align 8
  %4 = alloca i32, align 4
  store ptr %0, ptr %3, align 8, !tbaa !163
  store i32 %1, ptr %4, align 4, !tbaa !48
  %5 = load ptr, ptr %3, align 8
  %6 = getelementptr inbounds nuw %"class.cv::Matx.4", ptr %5, i32 0, i32 0
  %7 = load i32, ptr %4, align 4, !tbaa !48
  %8 = sext i32 %7 to i64
  %9 = getelementptr inbounds [3 x i8], ptr %6, i64 0, i64 %8
  ret ptr %9
}

; Function Attrs: inlinehint mustprogress nounwind uwtable
define linkonce_odr hidden noundef ptr @_ZN2cv3Mat3ptrINS_3VecIhLi3EEEEEPT_ii(ptr noundef nonnull align 8 dereferenceable(96) %0, i32 noundef %1, i32 noundef %2) #14 comdat align 2 {
  %4 = alloca ptr, align 8
  %5 = alloca i32, align 4
  %6 = alloca i32, align 4
  store ptr %0, ptr %4, align 8, !tbaa !159
  store i32 %1, ptr %5, align 4, !tbaa !48
  store i32 %2, ptr %6, align 4, !tbaa !48
  %7 = load ptr, ptr %4, align 8
  %8 = getelementptr inbounds nuw %"class.cv::Mat", ptr %7, i32 0, i32 4
  %9 = load ptr, ptr %8, align 8, !tbaa !161
  %10 = load i32, ptr %5, align 4, !tbaa !48
  %11 = sext i32 %10 to i64
  %12 = getelementptr inbounds nuw %"class.cv::Mat", ptr %7, i32 0, i32 11
  %13 = getelementptr inbounds nuw %"struct.cv::MatStep", ptr %12, i32 0, i32 0
  %14 = load ptr, ptr %13, align 8, !tbaa !162
  %15 = getelementptr inbounds i64, ptr %14, i64 0
  %16 = load i64, ptr %15, align 8, !tbaa !54
  %17 = mul i64 %11, %16
  %18 = getelementptr inbounds nuw i8, ptr %9, i64 %17
  %19 = load i32, ptr %6, align 4, !tbaa !48
  %20 = sext i32 %19 to i64
  %21 = getelementptr inbounds nuw %"class.cv::Mat", ptr %7, i32 0, i32 11
  %22 = getelementptr inbounds nuw %"struct.cv::MatStep", ptr %21, i32 0, i32 0
  %23 = load ptr, ptr %22, align 8, !tbaa !162
  %24 = getelementptr inbounds i64, ptr %23, i64 1
  %25 = load i64, ptr %24, align 8, !tbaa !54
  %26 = mul i64 %20, %25
  %27 = getelementptr inbounds nuw i8, ptr %18, i64 %26
  ret ptr %27
}

; Function Attrs: mustprogress uwtable
define void @_ZN2cv8freetype13FreeType2Impl18putPixel_8UC3_monoERNS_3MatEiiPKh(ptr noundef nonnull align 8 dereferenceable(88) %0, ptr noundef nonnull align 8 dereferenceable(96) %1, i32 noundef %2, i32 noundef %3, ptr noundef %4) #4 align 2 {
  %6 = alloca ptr, align 8
  %7 = alloca ptr, align 8
  %8 = alloca i32, align 4
  %9 = alloca i32, align 4
  %10 = alloca ptr, align 8
  %11 = alloca ptr, align 8
  store ptr %0, ptr %6, align 8, !tbaa !3
  store ptr %1, ptr %7, align 8, !tbaa !159
  store i32 %2, ptr %8, align 4, !tbaa !48
  store i32 %3, ptr %9, align 4, !tbaa !48
  store ptr %4, ptr %10, align 8, !tbaa !72
  call void @llvm.lifetime.start.p0(i64 8, ptr %11) #3
  %12 = load ptr, ptr %7, align 8, !tbaa !159
  %13 = load i32, ptr %8, align 4, !tbaa !48
  %14 = load i32, ptr %9, align 4, !tbaa !48
  %15 = call noundef ptr @_ZN2cv3Mat3ptrINS_3VecIhLi3EEEEEPT_ii(ptr noundef nonnull align 8 dereferenceable(96) %12, i32 noundef %13, i32 noundef %14)
  store ptr %15, ptr %11, align 8, !tbaa !163
  %16 = load ptr, ptr %10, align 8, !tbaa !72
  %17 = getelementptr inbounds i8, ptr %16, i64 0
  %18 = load i8, ptr %17, align 1, !tbaa !101
  %19 = load ptr, ptr %11, align 8, !tbaa !163
  %20 = call noundef nonnull align 1 dereferenceable(1) ptr @_ZN2cv3VecIhLi3EEixEi(ptr noundef nonnull align 1 dereferenceable(3) %19, i32 noundef 0)
  store i8 %18, ptr %20, align 1, !tbaa !101
  %21 = load ptr, ptr %10, align 8, !tbaa !72
  %22 = getelementptr inbounds i8, ptr %21, i64 1
  %23 = load i8, ptr %22, align 1, !tbaa !101
  %24 = load ptr, ptr %11, align 8, !tbaa !163
  %25 = call noundef nonnull align 1 dereferenceable(1) ptr @_ZN2cv3VecIhLi3EEixEi(ptr noundef nonnull align 1 dereferenceable(3) %24, i32 noundef 1)
  store i8 %23, ptr %25, align 1, !tbaa !101
  %26 = load ptr, ptr %10, align 8, !tbaa !72
  %27 = getelementptr inbounds i8, ptr %26, i64 2
  %28 = load i8, ptr %27, align 1, !tbaa !101
  %29 = load ptr, ptr %11, align 8, !tbaa !163
  %30 = call noundef nonnull align 1 dereferenceable(1) ptr @_ZN2cv3VecIhLi3EEixEi(ptr noundef nonnull align 1 dereferenceable(3) %29, i32 noundef 2)
  store i8 %28, ptr %30, align 1, !tbaa !101
  call void @llvm.lifetime.end.p0(i64 8, ptr %11) #3
  ret void
}