; Function Attrs: mustprogress nofree norecurse nosync nounwind willreturn memory(readwrite, inaccessiblemem: none) uwtable
define void @_ZN2cv8freetype13FreeType2Impl18putPixel_8UC3_monoERNS_3MatEiiPKh(ptr nonnull readnone align 8 captures(none) %0, ptr noundef nonnull readonly align 8 captures(none) dereferenceable(96) %1, i32 noundef %2, i32 noundef %3, ptr noundef readonly captures(none) %4) #13 align 2 {
  %6 = getelementptr inbounds nuw i8, ptr %1, i64 16
  %7 = load ptr, ptr %6, align 8, !tbaa !168
  %8 = sext i32 %2 to i64
  %9 = getelementptr inbounds nuw i8, ptr %1, i64 72
  %10 = load ptr, ptr %9, align 8, !tbaa !169
  %11 = load i64, ptr %10, align 8, !tbaa !62
  %12 = mul i64 %11, %8
  %13 = getelementptr inbounds nuw i8, ptr %7, i64 %12
  %14 = sext i32 %3 to i64
  %15 = getelementptr inbounds nuw i8, ptr %10, i64 8
  %16 = load i64, ptr %15, align 8, !tbaa !62
  %17 = mul i64 %16, %14
  %18 = getelementptr inbounds nuw i8, ptr %13, i64 %17
  %19 = load i8, ptr %4, align 1, !tbaa !107
  store i8 %19, ptr %18, align 1, !tbaa !107
  %20 = getelementptr inbounds nuw i8, ptr %4, i64 1
  %21 = load i8, ptr %20, align 1, !tbaa !107
  %22 = getelementptr inbounds nuw i8, ptr %18, i64 1
  store i8 %21, ptr %22, align 1, !tbaa !107
  %23 = getelementptr inbounds nuw i8, ptr %4, i64 2
  %24 = load i8, ptr %23, align 1, !tbaa !107
  %25 = getelementptr inbounds nuw i8, ptr %18, i64 2
  store i8 %24, ptr %25, align 1, !tbaa !107
  ret void
}